target datalayout = "e-m:e-p270:32:32-p271:32:32-p272:64:64-i64:64-i128:128-f80:128-n8:16:32:64-S128"
target triple = "x86_64-pc-linux-gnu"

%struct.Vec_Ptr_t_ = type { i32, i32, ptr }
%struct.Abc_Obj_t_ = type { ptr, ptr, i32, i32, %struct.Vec_Int_t_, %struct.Vec_Int_t_, %union.anon, %union.anon.0 }
%struct.Vec_Int_t_ = type { i32, i32, ptr }
%union.anon = type { ptr }
%union.anon.0 = type { ptr }
%struct.Abc_Ntk_t_ = type { i32, i32, ptr, ptr, ptr, ptr, ptr, ptr, ptr, ptr, ptr, ptr, ptr, [11 x i32], i32, i32, i32, i32, ptr, i32, ptr, ptr, i32, i32, i32, double, i32, %struct.Vec_Int_t_, ptr, ptr, ptr, ptr, ptr, float, i32, ptr, ptr, ptr, ptr, ptr, ptr, ptr, ptr, ptr, ptr, ptr, ptr, ptr, ptr, ptr, ptr, ptr, ptr, ptr, ptr, ptr, ptr }

; Function Attrs: inlinehint nounwind uwtable
define internal ptr @Vec_PtrEntry(ptr noundef %0, i32 noundef %1) #2 {
  %3 = alloca ptr, align 8
  %4 = alloca i32, align 4
  store ptr %0, ptr %3, align 8, !tbaa !10
  store i32 %1, ptr %4, align 4, !tbaa !8
  %5 = load ptr, ptr %3, align 8, !tbaa !10
  %6 = getelementptr inbounds nuw %struct.Vec_Ptr_t_, ptr %5, i32 0, i32 2
  %7 = load ptr, ptr %6, align 8, !tbaa !14
  %8 = load i32, ptr %4, align 4, !tbaa !8
  %9 = sext i32 %8 to i64
  %10 = getelementptr inbounds ptr, ptr %7, i64 %9
  %11 = load ptr, ptr %10, align 8, !tbaa !20
  ret ptr %11
}

; Function Attrs: inlinehint nounwind uwtable
define internal ptr @Abc_NtkCo(ptr noundef %0, i32 noundef %1) #2 {
  %3 = alloca ptr, align 8
  %4 = alloca i32, align 4
  store ptr %0, ptr %3, align 8, !tbaa !3
  store i32 %1, ptr %4, align 4, !tbaa !8
  %5 = load ptr, ptr %3, align 8, !tbaa !3
  %6 = getelementptr inbounds nuw %struct.Abc_Ntk_t_, ptr %5, i32 0, i32 9
  %7 = load ptr, ptr %6, align 8, !tbaa !44
  %8 = load i32, ptr %4, align 4, !tbaa !8
  %9 = call ptr @Vec_PtrEntry(ptr noundef %7, i32 noundef %8)
  ret ptr %9
}

; Function Attrs: inlinehint nounwind uwtable
define internal i32 @Abc_NtkCoNum(ptr noundef %0) #2 {
  %2 = alloca ptr, align 8
  store ptr %0, ptr %2, align 8, !tbaa !3
  %3 = load ptr, ptr %2, align 8, !tbaa !3
  %4 = getelementptr inbounds nuw %struct.Abc_Ntk_t_, ptr %3, i32 0, i32 9
  %5 = load ptr, ptr %4, align 8, !tbaa !44
  %6 = call i32 @Vec_PtrSize(ptr noundef %5)
  ret i32 %6
}

; Function Attrs: inlinehint nounwind uwtable
define internal i32 @Abc_ObjFaninId1(ptr noundef %0) #2 {
  %2 = alloca ptr, align 8
  store ptr %0, ptr %2, align 8, !tbaa !12
  %3 = load ptr, ptr %2, align 8, !tbaa !12
  %4 = getelementptr inbounds nuw %struct.Abc_Obj_t_, ptr %3, i32 0, i32 4
  %5 = getelementptr inbounds nuw %struct.Vec_Int_t_, ptr %4, i32 0, i32 2
  %6 = load ptr, ptr %5, align 8, !tbaa !43
  %7 = getelementptr inbounds i32, ptr %6, i64 1
  %8 = load i32, ptr %7, align 4, !tbaa !8
  ret i32 %8
}

; Function Attrs: inlinehint nounwind uwtable
define internal i32 @Abc_ObjFaninId0(ptr noundef %0) #2 {
  %2 = alloca ptr, align 8
  store ptr %0, ptr %2, align 8, !tbaa !12
  %3 = load ptr, ptr %2, align 8, !tbaa !12
  %4 = getelementptr inbounds nuw %struct.Abc_Obj_t_, ptr %3, i32 0, i32 4
  %5 = getelementptr inbounds nuw %struct.Vec_Int_t_, ptr %4, i32 0, i32 2
  %6 = load ptr, ptr %5, align 8, !tbaa !43
  %7 = getelementptr inbounds i32, ptr %6, i64 0
  %8 = load i32, ptr %7, align 4, !tbaa !8
  ret i32 %8
}

; Function Attrs: inlinehint nounwind uwtable
define internal i32 @Abc_ObjIsNode(ptr noundef %0) #2 {
  %2 = alloca ptr, align 8
  store ptr %0, ptr %2, align 8, !tbaa !12
  %3 = load ptr, ptr %2, align 8, !tbaa !12
  %4 = getelementptr inbounds nuw %struct.Abc_Obj_t_, ptr %3, i32 0, i32 3
  %5 = load i32, ptr %4, align 4
  %6 = and i32 %5, 15
  %7 = icmp eq i32 %6, 7
  %8 = zext i1 %7 to i32
  ret i32 %8
}

; Function Attrs: inlinehint nounwind uwtable
define internal ptr @Abc_NtkObj(ptr noundef %0, i32 noundef %1) #2 {
  %3 = alloca ptr, align 8
  %4 = alloca i32, align 4
  store ptr %0, ptr %3, align 8, !tbaa !3
  store i32 %1, ptr %4, align 4, !tbaa !8
  %5 = load ptr, ptr %3, align 8, !tbaa !3
  %6 = getelementptr inbounds nuw %struct.Abc_Ntk_t_, ptr %5, i32 0, i32 5
  %7 = load ptr, ptr %6, align 8, !tbaa !23
  %8 = load i32, ptr %4, align 4, !tbaa !8
  %9 = call ptr @Vec_PtrEntry(ptr noundef %7, i32 noundef %8)
  ret ptr %9
}

; Function Attrs: inlinehint nounwind uwtable
define internal i32 @Vec_PtrSize(ptr noundef %0) #2 {
  %2 = alloca ptr, align 8
  store ptr %0, ptr %2, align 8, !tbaa !10
  %3 = load ptr, ptr %2, align 8, !tbaa !10
  %4 = getelementptr inbounds nuw %struct.Vec_Ptr_t_, ptr %3, i32 0, i32 1
  %5 = load i32, ptr %4, align 4, !tbaa !42
  ret i32 %5
}

; Function Attrs: inlinehint nounwind uwtable
define internal ptr @Abc_NtkCi(ptr noundef %0, i32 noundef %1) #2 {
  %3 = alloca ptr, align 8
  %4 = alloca i32, align 4
  store ptr %0, ptr %3, align 8, !tbaa !3
  store i32 %1, ptr %4, align 4, !tbaa !8
  %5 = load ptr, ptr %3, align 8, !tbaa !3
  %6 = getelementptr inbounds nuw %struct.Abc_Ntk_t_, ptr %5, i32 0, i32 8
  %7 = load ptr, ptr %6, align 8, !tbaa !41
  %8 = load i32, ptr %4, align 4, !tbaa !8
  %9 = call ptr @Vec_PtrEntry(ptr noundef %7, i32 noundef %8)
  ret ptr %9
}

; Function Attrs: inlinehint nounwind uwtable
define internal i32 @Abc_NtkObjNumMax(ptr noundef %0) #2 {
  %2 = alloca ptr, align 8
  store ptr %0, ptr %2, align 8, !tbaa !3
  %3 = load ptr, ptr %2, align 8, !tbaa !3
  %4 = getelementptr inbounds nuw %struct.Abc_Ntk_t_, ptr %3, i32 0, i32 5
  %5 = load ptr, ptr %4, align 8, !tbaa !23
  %6 = call i32 @Vec_PtrSize(ptr noundef %5)
  ret i32 %6
}

; Function Attrs: inlinehint nounwind uwtable
define internal i32 @Abc_NtkCiNum(ptr noundef %0) #2 {
  %2 = alloca ptr, align 8
  store ptr %0, ptr %2, align 8, !tbaa !3
  %3 = load ptr, ptr %2, align 8, !tbaa !3
  %4 = getelementptr inbounds nuw %struct.Abc_Ntk_t_, ptr %3, i32 0, i32 8
  %5 = load ptr, ptr %4, align 8, !tbaa !41
  %6 = call i32 @Vec_PtrSize(ptr noundef %5)
  ret i32 %6
}

; Function Attrs: nounwind uwtable
define ptr @Sim_ComputeStrSupp(ptr noundef %0) #0 {
  %2 = alloca ptr, align 8
  %3 = alloca ptr, align 8
  %4 = alloca ptr, align 8
  %5 = alloca ptr, align 8
  %6 = alloca ptr, align 8
  %7 = alloca ptr, align 8
  %8 = alloca i32, align 4
  %9 = alloca i32, align 4
  %10 = alloca i32, align 4
  store ptr %0, ptr %2, align 8, !tbaa !3
  call void @llvm.lifetime.start.p0(i64 8, ptr %3) #7
  call void @llvm.lifetime.start.p0(i64 8, ptr %4) #7
  call void @llvm.lifetime.start.p0(i64 8, ptr %5) #7
  call void @llvm.lifetime.start.p0(i64 8, ptr %6) #7
  call void @llvm.lifetime.start.p0(i64 8, ptr %7) #7
  call void @llvm.lifetime.start.p0(i64 4, ptr %8) #7
  call void @llvm.lifetime.start.p0(i64 4, ptr %9) #7
  call void @llvm.lifetime.start.p0(i64 4, ptr %10) #7
  %11 = load ptr, ptr %2, align 8, !tbaa !3
  %12 = call i32 @Abc_NtkCiNum(ptr noundef %11)
  %13 = ashr i32 %12, 5
  %14 = load ptr, ptr %2, align 8, !tbaa !3
  %15 = call i32 @Abc_NtkCiNum(ptr noundef %14)
  %16 = and i32 %15, 31
  %17 = icmp sgt i32 %16, 0
  %18 = zext i1 %17 to i32
  %19 = add nsw i32 %13, %18
  store i32 %19, ptr %8, align 4, !tbaa !8
  %20 = load ptr, ptr %2, align 8, !tbaa !3
  %21 = call i32 @Abc_NtkObjNumMax(ptr noundef %20)
  %22 = load i32, ptr %8, align 4, !tbaa !8
  %23 = call ptr @Sim_UtilInfoAlloc(i32 noundef %21, i32 noundef %22, i32 noundef 1)
  store ptr %23, ptr %3, align 8, !tbaa !10
  store i32 0, ptr %9, align 4, !tbaa !8
  br label %24

24:                                               ; preds = %54, %1
  %25 = load i32, ptr %9, align 4, !tbaa !8
  %26 = load ptr, ptr %2, align 8, !tbaa !3
  %27 = call i32 @Abc_NtkCiNum(ptr noundef %26)
  %28 = icmp slt i32 %25, %27
  br i1 %28, label %29, label %33

29:                                               ; preds = %24
  %30 = load ptr, ptr %2, align 8, !tbaa !3
  %31 = load i32, ptr %9, align 4, !tbaa !8
  %32 = call ptr @Abc_NtkCi(ptr noundef %30, i32 noundef %31)
  store ptr %32, ptr %4, align 8, !tbaa !12
  br label %33

33:                                               ; preds = %29, %24
  %34 = phi i1 [ false, %24 ], [ true, %29 ]
  br i1 %34, label %35, label %57

35:                                               ; preds = %33
  %36 = load i32, ptr %9, align 4, !tbaa !8
  %37 = and i32 %36, 31
  %38 = shl i32 1, %37
  %39 = load ptr, ptr %3, align 8, !tbaa !10
  %40 = getelementptr inbounds nuw %struct.Vec_Ptr_t_, ptr %39, i32 0, i32 2
  %41 = load ptr, ptr %40, align 8, !tbaa !14
  %42 = load ptr, ptr %4, align 8, !tbaa !12
  %43 = getelementptr inbounds nuw %struct.Abc_Obj_t_, ptr %42, i32 0, i32 2
  %44 = load i32, ptr %43, align 8, !tbaa !16
  %45 = sext i32 %44 to i64
  %46 = getelementptr inbounds ptr, ptr %41, i64 %45
  %47 = load ptr, ptr %46, align 8, !tbaa !20
  %48 = load i32, ptr %9, align 4, !tbaa !8
  %49 = ashr i32 %48, 5
  %50 = sext i32 %49 to i64
  %51 = getelementptr inbounds i32, ptr %47, i64 %50
  %52 = load i32, ptr %51, align 4, !tbaa !8
  %53 = or i32 %52, %38
  store i32 %53, ptr %51, align 4, !tbaa !8
  br label %54

54:                                               ; preds = %35
  %55 = load i32, ptr %9, align 4, !tbaa !8
  %56 = add nsw i32 %55, 1
  store i32 %56, ptr %9, align 4, !tbaa !8
  br label %24, !llvm.loop !21

57:                                               ; preds = %33
  store i32 0, ptr %9, align 4, !tbaa !8
  br label %58

58:                                               ; preds = %130, %57
  %59 = load i32, ptr %9, align 4, !tbaa !8
  %60 = load ptr, ptr %2, align 8, !tbaa !3
  %61 = getelementptr inbounds nuw %struct.Abc_Ntk_t_, ptr %60, i32 0, i32 5
  %62 = load ptr, ptr %61, align 8, !tbaa !23
  %63 = call i32 @Vec_PtrSize(ptr noundef %62)
  %64 = icmp slt i32 %59, %63
  br i1 %64, label %65, label %69

65:                                               ; preds = %58
  %66 = load ptr, ptr %2, align 8, !tbaa !3
  %67 = load i32, ptr %9, align 4, !tbaa !8
  %68 = call ptr @Abc_NtkObj(ptr noundef %66, i32 noundef %67)
  store ptr %68, ptr %4, align 8, !tbaa !12
  br label %69

69:                                               ; preds = %65, %58
  %70 = phi i1 [ false, %58 ], [ true, %65 ]
  br i1 %70, label %71, label %133

71:                                               ; preds = %69
  %72 = load ptr, ptr %4, align 8, !tbaa !12
  %73 = icmp eq ptr %72, null
  br i1 %73, label %78, label %74

74:                                               ; preds = %71
  %75 = load ptr, ptr %4, align 8, !tbaa !12
  %76 = call i32 @Abc_ObjIsNode(ptr noundef %75)
  %77 = icmp ne i32 %76, 0
  br i1 %77, label %79, label %78

78:                                               ; preds = %74, %71
  br label %129

79:                                               ; preds = %74
  %80 = load ptr, ptr %3, align 8, !tbaa !10
  %81 = getelementptr inbounds nuw %struct.Vec_Ptr_t_, ptr %80, i32 0, i32 2
  %82 = load ptr, ptr %81, align 8, !tbaa !14
  %83 = load ptr, ptr %4, align 8, !tbaa !12
  %84 = getelementptr inbounds nuw %struct.Abc_Obj_t_, ptr %83, i32 0, i32 2
  %85 = load i32, ptr %84, align 8, !tbaa !16
  %86 = sext i32 %85 to i64
  %87 = getelementptr inbounds ptr, ptr %82, i64 %86
  %88 = load ptr, ptr %87, align 8, !tbaa !20
  store ptr %88, ptr %5, align 8, !tbaa !36
  %89 = load ptr, ptr %3, align 8, !tbaa !10
  %90 = getelementptr inbounds nuw %struct.Vec_Ptr_t_, ptr %89, i32 0, i32 2
  %91 = load ptr, ptr %90, align 8, !tbaa !14
  %92 = load ptr, ptr %4, align 8, !tbaa !12
  %93 = call i32 @Abc_ObjFaninId0(ptr noundef %92)
  %94 = sext i32 %93 to i64
  %95 = getelementptr inbounds ptr, ptr %91, i64 %94
  %96 = load ptr, ptr %95, align 8, !tbaa !20
  store ptr %96, ptr %6, align 8, !tbaa !36
  %97 = load ptr, ptr %3, align 8, !tbaa !10
  %98 = getelementptr inbounds nuw %struct.Vec_Ptr_t_, ptr %97, i32 0, i32 2
  %99 = load ptr, ptr %98, align 8, !tbaa !14
  %100 = load ptr, ptr %4, align 8, !tbaa !12
  %101 = call i32 @Abc_ObjFaninId1(ptr noundef %100)
  %102 = sext i32 %101 to i64
  %103 = getelementptr inbounds ptr, ptr %99, i64 %102
  %104 = load ptr, ptr %103, align 8, !tbaa !20
  store ptr %104, ptr %7, align 8, !tbaa !36
  store i32 0, ptr %10, align 4, !tbaa !8
  br label %105

105:                                              ; preds = %125, %79
  %106 = load i32, ptr %10, align 4, !tbaa !8
  %107 = load i32, ptr %8, align 4, !tbaa !8
  %108 = icmp slt i32 %106, %107
  br i1 %108, label %109, label %128

109:                                              ; preds = %105
  %110 = load ptr, ptr %6, align 8, !tbaa !36
  %111 = load i32, ptr %10, align 4, !tbaa !8
  %112 = sext i32 %111 to i64
  %113 = getelementptr inbounds i32, ptr %110, i64 %112
  %114 = load i32, ptr %113, align 4, !tbaa !8
  %115 = load ptr, ptr %7, align 8, !tbaa !36
  %116 = load i32, ptr %10, align 4, !tbaa !8
  %117 = sext i32 %116 to i64
  %118 = getelementptr inbounds i32, ptr %115, i64 %117
  %119 = load i32, ptr %118, align 4, !tbaa !8
  %120 = or i32 %114, %119
  %121 = load ptr, ptr %5, align 8, !tbaa !36
  %122 = load i32, ptr %10, align 4, !tbaa !8
  %123 = sext i32 %122 to i64
  %124 = getelementptr inbounds i32, ptr %121, i64 %123
  store i32 %120, ptr %124, align 4, !tbaa !8
  br label %125

125:                                              ; preds = %109
  %126 = load i32, ptr %10, align 4, !tbaa !8
  %127 = add nsw i32 %126, 1
  store i32 %127, ptr %10, align 4, !tbaa !8
  br label %105, !llvm.loop !37

128:                                              ; preds = %105
  br label %129

129:                                              ; preds = %128, %78
  br label %130

130:                                              ; preds = %129
  %131 = load i32, ptr %9, align 4, !tbaa !8
  %132 = add nsw i32 %131, 1
  store i32 %132, ptr %9, align 4, !tbaa !8
  br label %58, !llvm.loop !38

133:                                              ; preds = %69
  store i32 0, ptr %9, align 4, !tbaa !8
  br label %134

134:                                              ; preds = %181, %133
  %135 = load i32, ptr %9, align 4, !tbaa !8
  %136 = load ptr, ptr %2, align 8, !tbaa !3
  %137 = call i32 @Abc_NtkCoNum(ptr noundef %136)
  %138 = icmp slt i32 %135, %137
  br i1 %138, label %139, label %143

139:                                              ; preds = %134
  %140 = load ptr, ptr %2, align 8, !tbaa !3
  %141 = load i32, ptr %9, align 4, !tbaa !8
  %142 = call ptr @Abc_NtkCo(ptr noundef %140, i32 noundef %141)
  store ptr %142, ptr %4, align 8, !tbaa !12
  br label %143

143:                                              ; preds = %139, %134
  %144 = phi i1 [ false, %134 ], [ true, %139 ]
  br i1 %144, label %145, label %184

145:                                              ; preds = %143
  %146 = load ptr, ptr %3, align 8, !tbaa !10
  %147 = getelementptr inbounds nuw %struct.Vec_Ptr_t_, ptr %146, i32 0, i32 2
  %148 = load ptr, ptr %147, align 8, !tbaa !14
  %149 = load ptr, ptr %4, align 8, !tbaa !12
  %150 = getelementptr inbounds nuw %struct.Abc_Obj_t_, ptr %149, i32 0, i32 2
  %151 = load i32, ptr %150, align 8, !tbaa !16
  %152 = sext i32 %151 to i64
  %153 = getelementptr inbounds ptr, ptr %148, i64 %152
  %154 = load ptr, ptr %153, align 8, !tbaa !20
  store ptr %154, ptr %5, align 8, !tbaa !36
  %155 = load ptr, ptr %3, align 8, !tbaa !10
  %156 = getelementptr inbounds nuw %struct.Vec_Ptr_t_, ptr %155, i32 0, i32 2
  %157 = load ptr, ptr %156, align 8, !tbaa !14
  %158 = load ptr, ptr %4, align 8, !tbaa !12
  %159 = call i32 @Abc_ObjFaninId0(ptr noundef %158)
  %160 = sext i32 %159 to i64
  %161 = getelementptr inbounds ptr, ptr %157, i64 %160
  %162 = load ptr, ptr %161, align 8, !tbaa !20
  store ptr %162, ptr %6, align 8, !tbaa !36
  store i32 0, ptr %10, align 4, !tbaa !8
  br label %163

163:                                              ; preds = %177, %145
  %164 = load i32, ptr %10, align 4, !tbaa !8
  %165 = load i32, ptr %8, align 4, !tbaa !8
  %166 = icmp slt i32 %164, %165
  br i1 %166, label %167, label %180

167:                                              ; preds = %163
  %168 = load ptr, ptr %6, align 8, !tbaa !36
  %169 = load i32, ptr %10, align 4, !tbaa !8
  %170 = sext i32 %169 to i64
  %171 = getelementptr inbounds i32, ptr %168, i64 %170
  %172 = load i32, ptr %171, align 4, !tbaa !8
  %173 = load ptr, ptr %5, align 8, !tbaa !36
  %174 = load i32, ptr %10, align 4, !tbaa !8
  %175 = sext i32 %174 to i64
  %176 = getelementptr inbounds i32, ptr %173, i64 %175
  store i32 %172, ptr %176, align 4, !tbaa !8
  br label %177

177:                                              ; preds = %167
  %178 = load i32, ptr %10, align 4, !tbaa !8
  %179 = add nsw i32 %178, 1
  store i32 %179, ptr %10, align 4, !tbaa !8
  br label %163, !llvm.loop !39

180:                                              ; preds = %163
  br label %181

181:                                              ; preds = %180
  %182 = load i32, ptr %9, align 4, !tbaa !8
  %183 = add nsw i32 %182, 1
  store i32 %183, ptr %9, align 4, !tbaa !8
  br label %134, !llvm.loop !40

184:                                              ; preds = %143
  %185 = load ptr, ptr %3, align 8, !tbaa !10
  call void @llvm.lifetime.end.p0(i64 4, ptr %10) #7
  call void @llvm.lifetime.end.p0(i64 4, ptr %9) #7
  call void @llvm.lifetime.end.p0(i64 4, ptr %8) #7
  call void @llvm.lifetime.end.p0(i64 8, ptr %7) #7
  call void @llvm.lifetime.end.p0(i64 8, ptr %6) #7
  call void @llvm.lifetime.end.p0(i64 8, ptr %5) #7
  call void @llvm.lifetime.end.p0(i64 8, ptr %4) #7
  call void @llvm.lifetime.end.p0(i64 8, ptr %3) #7
  ret ptr %185
}