; Function Attrs: nounwind uwtable
define ptr @Sim_ComputeStrSupp(ptr noundef readonly captures(none) %0) local_unnamed_addr #0 {
  %2 = getelementptr i8, ptr %0, i64 56
  %.val58 = load ptr, ptr %2, align 8, !tbaa !3
  %3 = getelementptr i8, ptr %.val58, i64 4
  %.val58.val = load i32, ptr %3, align 4, !tbaa !24
  %4 = ashr i32 %.val58.val, 5
  %5 = and i32 %.val58.val, 31
  %6 = icmp ne i32 %5, 0
  %7 = zext i1 %6 to i32
  %8 = add nsw i32 %4, %7
  %9 = getelementptr i8, ptr %0, i64 32
  %.val61 = load ptr, ptr %9, align 8, !tbaa !26
  %10 = getelementptr i8, ptr %.val61, i64 4
  %.val61.val = load i32, ptr %10, align 4, !tbaa !24
  %11 = tail call ptr @Sim_UtilInfoAlloc(i32 noundef %.val61.val, i32 noundef %8, i32 noundef 1) #12
  %.val60 = load ptr, ptr %2, align 8, !tbaa !3
  %12 = getelementptr i8, ptr %.val60, i64 4
  %.val60.val70 = load i32, ptr %12, align 4, !tbaa !24
  %13 = icmp sgt i32 %.val60.val70, 0
  br i1 %13, label %.lr.ph, label %.critedge.preheader

.lr.ph:                                           ; preds = %1
  %14 = getelementptr i8, ptr %.val60, i64 8
  %.val62.val = load ptr, ptr %14, align 8, !tbaa !27
  %15 = getelementptr inbounds nuw i8, ptr %11, i64 8
  %16 = load ptr, ptr %15, align 8, !tbaa !27
  br label %52

.critedge.preheader:                              ; preds = %52, %1
  %17 = load ptr, ptr %9, align 8, !tbaa !26
  %18 = getelementptr i8, ptr %17, i64 4
  %.val74 = load i32, ptr %18, align 4, !tbaa !24
  %19 = icmp sgt i32 %.val74, 0
  br i1 %19, label %.lr.ph76, label %.critedge2.preheader

.lr.ph76:                                         ; preds = %.critedge.preheader
  %20 = getelementptr i8, ptr %17, i64 8
  %.val63.val = load ptr, ptr %20, align 8, !tbaa !27
  %21 = getelementptr inbounds nuw i8, ptr %11, i64 8
  %22 = icmp sgt i32 %8, 0
  br i1 %22, label %.lr.ph76.split.us.preheader, label %.critedge2.preheader

.lr.ph76.split.us.preheader:                      ; preds = %.lr.ph76
  %wide.trip.count = zext nneg i32 %8 to i64
  br label %.lr.ph76.split.us

.lr.ph76.split.us:                                ; preds = %.lr.ph76.split.us.preheader, %.critedge.us
  %.val.us99 = phi i32 [ %.val74, %.lr.ph76.split.us.preheader ], [ %.val.us, %.critedge.us ]
  %indvars.iv88 = phi i64 [ 0, %.lr.ph76.split.us.preheader ], [ %indvars.iv.next89, %.critedge.us ]
  %23 = getelementptr inbounds nuw ptr, ptr %.val63.val, i64 %indvars.iv88
  %24 = load ptr, ptr %23, align 8, !tbaa !28
  %25 = icmp eq ptr %24, null
  br i1 %25, label %.critedge.us, label %26

26:                                               ; preds = %.lr.ph76.split.us
  %27 = getelementptr i8, ptr %24, i64 20
  %.val64.us = load i32, ptr %27, align 4
  %28 = and i32 %.val64.us, 15
  %.not.us = icmp eq i32 %28, 7
  br i1 %.not.us, label %.lr.ph73.us, label %.critedge.us

.lr.ph73.us:                                      ; preds = %26
  %29 = load ptr, ptr %21, align 8, !tbaa !27
  %30 = getelementptr inbounds nuw i8, ptr %24, i64 16
  %31 = load i32, ptr %30, align 8, !tbaa !29
  %32 = sext i32 %31 to i64
  %33 = getelementptr inbounds ptr, ptr %29, i64 %32
  %34 = load ptr, ptr %33, align 8, !tbaa !28
  %35 = getelementptr i8, ptr %24, i64 32
  %.val65.us = load ptr, ptr %35, align 8, !tbaa !32
  %.val65.val.us = load i32, ptr %.val65.us, align 4, !tbaa !33
  %36 = sext i32 %.val65.val.us to i64
  %37 = getelementptr inbounds ptr, ptr %29, i64 %36
  %38 = load ptr, ptr %37, align 8, !tbaa !28
  %39 = getelementptr i8, ptr %.val65.us, i64 4
  %.val67.val.us = load i32, ptr %39, align 4, !tbaa !33
  %40 = sext i32 %.val67.val.us to i64
  %41 = getelementptr inbounds ptr, ptr %29, i64 %40
  %42 = load ptr, ptr %41, align 8, !tbaa !28
  br label %43

43:                                               ; preds = %.lr.ph73.us, %43
  %indvars.iv85 = phi i64 [ 0, %.lr.ph73.us ], [ %indvars.iv.next86, %43 ]
  %44 = getelementptr inbounds nuw i32, ptr %38, i64 %indvars.iv85
  %45 = load i32, ptr %44, align 4, !tbaa !33
  %46 = getelementptr inbounds nuw i32, ptr %42, i64 %indvars.iv85
  %47 = load i32, ptr %46, align 4, !tbaa !33
  %48 = or i32 %47, %45
  %49 = getelementptr inbounds nuw i32, ptr %34, i64 %indvars.iv85
  store i32 %48, ptr %49, align 4, !tbaa !33
  %indvars.iv.next86 = add nuw nsw i64 %indvars.iv85, 1
  %exitcond.not = icmp eq i64 %indvars.iv.next86, %wide.trip.count
  br i1 %exitcond.not, label %.critedge.us.loopexit, label %43, !llvm.loop !34

.critedge.us.loopexit:                            ; preds = %43
  %.val.us.pre = load i32, ptr %18, align 4, !tbaa !24
  br label %.critedge.us

.critedge.us:                                     ; preds = %.critedge.us.loopexit, %26, %.lr.ph76.split.us
  %.val.us = phi i32 [ %.val.us.pre, %.critedge.us.loopexit ], [ %.val.us99, %26 ], [ %.val.us99, %.lr.ph76.split.us ]
  %indvars.iv.next89 = add nuw nsw i64 %indvars.iv88, 1
  %50 = sext i32 %.val.us to i64
  %51 = icmp slt i64 %indvars.iv.next89, %50
  br i1 %51, label %.lr.ph76.split.us, label %.critedge2.preheader, !llvm.loop !36

52:                                               ; preds = %.lr.ph, %52
  %indvars.iv = phi i64 [ 0, %.lr.ph ], [ %indvars.iv.next, %52 ]
  %53 = getelementptr inbounds nuw ptr, ptr %.val62.val, i64 %indvars.iv
  %54 = load ptr, ptr %53, align 8, !tbaa !28
  %55 = trunc nuw nsw i64 %indvars.iv to i32
  %56 = and i32 %55, 31
  %57 = shl nuw i32 1, %56
  %58 = getelementptr inbounds nuw i8, ptr %54, i64 16
  %59 = load i32, ptr %58, align 8, !tbaa !29
  %60 = sext i32 %59 to i64
  %61 = getelementptr inbounds ptr, ptr %16, i64 %60
  %62 = load ptr, ptr %61, align 8, !tbaa !28
  %63 = lshr i64 %indvars.iv, 5
  %64 = and i64 %63, 134217727
  %65 = getelementptr inbounds nuw i32, ptr %62, i64 %64
  %66 = load i32, ptr %65, align 4, !tbaa !33
  %67 = or i32 %66, %57
  store i32 %67, ptr %65, align 4, !tbaa !33
  %indvars.iv.next = add nuw nsw i64 %indvars.iv, 1
  %.val60.val = load i32, ptr %12, align 4, !tbaa !24
  %68 = sext i32 %.val60.val to i64
  %69 = icmp slt i64 %indvars.iv.next, %68
  br i1 %69, label %52, label %.critedge.preheader, !llvm.loop !37

.critedge2.preheader:                             ; preds = %.critedge.us, %.lr.ph76, %.critedge.preheader
  %70 = getelementptr i8, ptr %0, i64 64
  %.val68 = load ptr, ptr %70, align 8, !tbaa !38
  %71 = getelementptr i8, ptr %.val68, i64 4
  %.val68.val79 = load i32, ptr %71, align 4, !tbaa !24
  %72 = icmp sgt i32 %.val68.val79, 0
  br i1 %72, label %.lr.ph81, label %.critedge4

.lr.ph81:                                         ; preds = %.critedge2.preheader
  %73 = getelementptr i8, ptr %.val68, i64 8
  %.val69.val = load ptr, ptr %73, align 8, !tbaa !27
  %74 = getelementptr inbounds nuw i8, ptr %11, i64 8
  %75 = load ptr, ptr %74, align 8, !tbaa !27
  %76 = icmp sgt i32 %8, 0
  br i1 %76, label %.lr.ph78.us.preheader, label %.critedge4

.lr.ph78.us.preheader:                            ; preds = %.lr.ph81
  %wide.trip.count94 = zext nneg i32 %8 to i64
  br label %.lr.ph78.us

.lr.ph78.us:                                      ; preds = %.lr.ph78.us.preheader, %._crit_edge.us
  %indvars.iv96 = phi i64 [ 0, %.lr.ph78.us.preheader ], [ %indvars.iv.next97, %._crit_edge.us ]
  %77 = getelementptr inbounds nuw ptr, ptr %.val69.val, i64 %indvars.iv96
  %78 = load ptr, ptr %77, align 8, !tbaa !28
  %79 = getelementptr inbounds nuw i8, ptr %78, i64 16
  %80 = load i32, ptr %79, align 8, !tbaa !29
  %81 = sext i32 %80 to i64
  %82 = getelementptr inbounds ptr, ptr %75, i64 %81
  %83 = load ptr, ptr %82, align 8, !tbaa !28
  %84 = getelementptr i8, ptr %78, i64 32
  %.val66.us = load ptr, ptr %84, align 8, !tbaa !32
  %.val66.val.us = load i32, ptr %.val66.us, align 4, !tbaa !33
  %85 = sext i32 %.val66.val.us to i64
  %86 = getelementptr inbounds ptr, ptr %75, i64 %85
  %87 = load ptr, ptr %86, align 8, !tbaa !28
  br label %88

88:                                               ; preds = %.lr.ph78.us, %88
  %indvars.iv91 = phi i64 [ 0, %.lr.ph78.us ], [ %indvars.iv.next92, %88 ]
  %89 = getelementptr inbounds nuw i32, ptr %87, i64 %indvars.iv91
  %90 = load i32, ptr %89, align 4, !tbaa !33
  %91 = getelementptr inbounds nuw i32, ptr %83, i64 %indvars.iv91
  store i32 %90, ptr %91, align 4, !tbaa !33
  %indvars.iv.next92 = add nuw nsw i64 %indvars.iv91, 1
  %exitcond95.not = icmp eq i64 %indvars.iv.next92, %wide.trip.count94
  br i1 %exitcond95.not, label %._crit_edge.us, label %88, !llvm.loop !39

._crit_edge.us:                                   ; preds = %88
  %indvars.iv.next97 = add nuw nsw i64 %indvars.iv96, 1
  %.val68.val.us = load i32, ptr %71, align 4, !tbaa !24
  %92 = sext i32 %.val68.val.us to i64
  %93 = icmp slt i64 %indvars.iv.next97, %92
  br i1 %93, label %.lr.ph78.us, label %.critedge4, !llvm.loop !40

.critedge4:                                       ; preds = %._crit_edge.us, %.lr.ph81, %.critedge2.preheader
  ret ptr %11
}